target datalayout = "e-m:e-p270:32:32-p271:32:32-p272:64:64-i64:64-i128:128-f80:128-n8:16:32:64-S128"
target triple = "x86_64-pc-linux-gnu"

%"class.gmx::AbstractAnalysisArrayData" = type <{ %"class.gmx::AbstractAnalysisData", i32, %"class.gmx::AnalysisDataPointSetInfo", [4 x i8], %"class.std::vector", %"class.std::vector.25", float, i8, i8, [2 x i8] }>
%"class.gmx::AbstractAnalysisData" = type { ptr, %"class.std::unique_ptr" }
%"class.std::unique_ptr" = type { %"struct.std::__uniq_ptr_data" }
%"struct.std::__uniq_ptr_data" = type { %"class.std::__uniq_ptr_impl" }
%"class.std::__uniq_ptr_impl" = type { %"class.std::tuple" }
%"class.std::tuple" = type { %"struct.std::_Tuple_impl" }
%"struct.std::_Tuple_impl" = type { %"struct.std::_Head_base.24" }
%"struct.std::_Head_base.24" = type { ptr }
%"class.gmx::AnalysisDataPointSetInfo" = type { i32, i32, i32, i32 }
%"class.std::vector" = type { %"struct.std::_Vector_base" }
%"struct.std::_Vector_base" = type { %"struct.std::_Vector_base<gmx::AnalysisDataValue, std::allocator<gmx::AnalysisDataValue>>::_Vector_impl" }
%"struct.std::_Vector_base<gmx::AnalysisDataValue, std::allocator<gmx::AnalysisDataValue>>::_Vector_impl" = type { %"struct.std::_Vector_base<gmx::AnalysisDataValue, std::allocator<gmx::AnalysisDataValue>>::_Vector_impl_data" }
%"struct.std::_Vector_base<gmx::AnalysisDataValue, std::allocator<gmx::AnalysisDataValue>>::_Vector_impl_data" = type { ptr, ptr, ptr }
%"class.std::vector.25" = type { %"struct.std::_Vector_base.26" }
%"struct.std::_Vector_base.26" = type { %"struct.std::_Vector_base<float, std::allocator<float>>::_Vector_impl" }
%"struct.std::_Vector_base<float, std::allocator<float>>::_Vector_impl" = type { %"struct.std::_Vector_base<float, std::allocator<float>>::_Vector_impl_data" }
%"struct.std::_Vector_base<float, std::allocator<float>>::_Vector_impl_data" = type { ptr, ptr, ptr }
%"class.gmx::AnalysisDataValue" = type { float, float, %"class.gmx::FlagsTemplate" }
%"class.gmx::FlagsTemplate" = type { i64 }

; Function Attrs: mustprogress nounwind uwtable
define linkonce_odr noundef nonnull align 8 dereferenceable(16) ptr @_ZNSt6vectorIN3gmx17AnalysisDataValueESaIS1_EEixEm(ptr noundef nonnull align 8 dereferenceable(24) %0, i64 noundef %1) #0 comdat align 2 {
  %3 = alloca ptr, align 8
  %4 = alloca i64, align 8
  store ptr %0, ptr %3, align 8
  store i64 %1, ptr %4, align 8
  %5 = load ptr, ptr %3, align 8
  %6 = getelementptr inbounds %"struct.std::_Vector_base", ptr %5, i32 0, i32 0
  %7 = getelementptr inbounds %"struct.std::_Vector_base<gmx::AnalysisDataValue, std::allocator<gmx::AnalysisDataValue>>::_Vector_impl_data", ptr %6, i32 0, i32 0
  %8 = load ptr, ptr %7, align 8
  %9 = load i64, ptr %4, align 8
  %10 = getelementptr inbounds %"class.gmx::AnalysisDataValue", ptr %8, i64 %9
  ret ptr %10
}

; Function Attrs: mustprogress nounwind uwtable
define linkonce_odr noundef nonnull align 4 dereferenceable(4) ptr @_ZN3gmx17AnalysisDataValue5errorEv(ptr noundef nonnull align 8 dereferenceable(16) %0) #0 comdat align 2 {
  %2 = alloca ptr, align 8
  store ptr %0, ptr %2, align 8
  %3 = load ptr, ptr %2, align 8
  %4 = getelementptr inbounds %"class.gmx::AnalysisDataValue", ptr %3, i32 0, i32 1
  ret ptr %4
}

; Function Attrs: mustprogress nounwind uwtable
define linkonce_odr noundef nonnull align 4 dereferenceable(4) ptr @_ZN3gmx17AnalysisDataValue5valueEv(ptr noundef nonnull align 8 dereferenceable(16) %0) #0 comdat align 2 {
  %2 = alloca ptr, align 8
  store ptr %0, ptr %2, align 8
  %3 = load ptr, ptr %2, align 8
  %4 = getelementptr inbounds %"class.gmx::AnalysisDataValue", ptr %3, i32 0, i32 0
  ret ptr %4
}

; Function Attrs: mustprogress uwtable
define linkonce_odr noundef nonnull align 8 dereferenceable(16) ptr @_ZN3gmx25AbstractAnalysisArrayData5valueEii(ptr noundef nonnull align 8 dereferenceable(94) %0, i32 noundef %1, i32 noundef %2) #2 comdat align 2 {
  %4 = alloca ptr, align 8
  %5 = alloca i32, align 4
  %6 = alloca i32, align 4
  store ptr %0, ptr %4, align 8
  store i32 %1, ptr %5, align 4
  store i32 %2, ptr %6, align 4
  %7 = load ptr, ptr %4, align 8
  %8 = getelementptr inbounds %"class.gmx::AbstractAnalysisArrayData", ptr %7, i32 0, i32 4
  %9 = load i32, ptr %5, align 4
  %10 = call noundef i32 @_ZNK3gmx20AbstractAnalysisData11columnCountEv(ptr noundef nonnull align 8 dereferenceable(16) %7)
  %11 = mul nsw i32 %9, %10
  %12 = load i32, ptr %6, align 4
  %13 = add nsw i32 %11, %12
  %14 = sext i32 %13 to i64
  %15 = call noundef nonnull align 8 dereferenceable(16) ptr @_ZNSt6vectorIN3gmx17AnalysisDataValueESaIS1_EEixEm(ptr noundef nonnull align 8 dereferenceable(24) %8, i64 noundef %14) #14
  ret ptr %15
}

; Function Attrs: mustprogress nounwind uwtable
define linkonce_odr noundef i32 @_ZNK3gmx25AbstractAnalysisArrayData8rowCountEv(ptr noundef nonnull align 8 dereferenceable(94) %0) #0 comdat align 2 {
  %2 = alloca ptr, align 8
  store ptr %0, ptr %2, align 8
  %3 = load ptr, ptr %2, align 8
  %4 = getelementptr inbounds %"class.gmx::AbstractAnalysisArrayData", ptr %3, i32 0, i32 1
  %5 = load i32, ptr %4, align 8
  ret i32 %5
}

; Function Attrs: mustprogress uwtable
define void @_ZN3gmx24AbstractAverageHistogram11scaleSingleEif(ptr noundef nonnull align 8 dereferenceable(120) %0, i32 noundef %1, float noundef %2) #2 align 2 {
  %4 = alloca ptr, align 8
  %5 = alloca i32, align 4
  %6 = alloca float, align 4
  %7 = alloca i32, align 4
  store ptr %0, ptr %4, align 8
  store i32 %1, ptr %5, align 4
  store float %2, ptr %6, align 4
  %8 = load ptr, ptr %4, align 8
  store i32 0, ptr %7, align 4
  br label %9

9:                                                ; preds = %28, %3
  %10 = load i32, ptr %7, align 4
  %11 = call noundef i32 @_ZNK3gmx25AbstractAnalysisArrayData8rowCountEv(ptr noundef nonnull align 8 dereferenceable(94) %8)
  %12 = icmp slt i32 %10, %11
  br i1 %12, label %13, label %31

13:                                               ; preds = %9
  %14 = load float, ptr %6, align 4
  %15 = load i32, ptr %7, align 4
  %16 = load i32, ptr %5, align 4
  %17 = call noundef nonnull align 8 dereferenceable(16) ptr @_ZN3gmx25AbstractAnalysisArrayData5valueEii(ptr noundef nonnull align 8 dereferenceable(94) %8, i32 noundef %15, i32 noundef %16)
  %18 = call noundef nonnull align 4 dereferenceable(4) ptr @_ZN3gmx17AnalysisDataValue5valueEv(ptr noundef nonnull align 8 dereferenceable(16) %17)
  %19 = load float, ptr %18, align 4
  %20 = fmul float %19, %14
  store float %20, ptr %18, align 4
  %21 = load float, ptr %6, align 4
  %22 = load i32, ptr %7, align 4
  %23 = load i32, ptr %5, align 4
  %24 = call noundef nonnull align 8 dereferenceable(16) ptr @_ZN3gmx25AbstractAnalysisArrayData5valueEii(ptr noundef nonnull align 8 dereferenceable(94) %8, i32 noundef %22, i32 noundef %23)
  %25 = call noundef nonnull align 4 dereferenceable(4) ptr @_ZN3gmx17AnalysisDataValue5errorEv(ptr noundef nonnull align 8 dereferenceable(16) %24)
  %26 = load float, ptr %25, align 4
  %27 = fmul float %26, %21
  store float %27, ptr %25, align 4
  br label %28

28:                                               ; preds = %13
  %29 = load i32, ptr %7, align 4
  %30 = add nsw i32 %29, 1
  store i32 %30, ptr %7, align 4
  br label %9, !llvm.loop !25

31:                                               ; preds = %9
  ret void
}

; Function Attrs: mustprogress uwtable
define void @_ZN3gmx24AbstractAverageHistogram8scaleAllEf(ptr noundef nonnull align 8 dereferenceable(120) %0, float noundef %1) #2 align 2 {
  %3 = alloca ptr, align 8
  %4 = alloca float, align 4
  %5 = alloca i32, align 4
  store ptr %0, ptr %3, align 8
  store float %1, ptr %4, align 4
  %6 = load ptr, ptr %3, align 8
  store i32 0, ptr %5, align 4
  br label %7

7:                                                ; preds = %14, %2
  %8 = load i32, ptr %5, align 4
  %9 = call noundef i32 @_ZNK3gmx20AbstractAnalysisData11columnCountEv(ptr noundef nonnull align 8 dereferenceable(16) %6)
  %10 = icmp slt i32 %8, %9
  br i1 %10, label %11, label %17

11:                                               ; preds = %7
  %12 = load i32, ptr %5, align 4
  %13 = load float, ptr %4, align 4
  call void @_ZN3gmx24AbstractAverageHistogram11scaleSingleEif(ptr noundef nonnull align 8 dereferenceable(120) %6, i32 noundef %12, float noundef %13)
  br label %14

14:                                               ; preds = %11
  %15 = load i32, ptr %5, align 4
  %16 = add nsw i32 %15, 1
  store i32 %16, ptr %5, align 4
  br label %7, !llvm.loop !28

17:                                               ; preds = %7
  ret void
}