; Function Attrs: mustprogress uwtable
define void @_ZN3gmx24AbstractAverageHistogram8scaleAllEf(ptr noundef nonnull align 8 dereferenceable(120) %0, float noundef %1) local_unnamed_addr #3 align 2 {
  %3 = tail call noundef i32 @_ZNK3gmx20AbstractAnalysisData11columnCountEv(ptr noundef nonnull align 8 dereferenceable(16) %0)
  %4 = icmp sgt i32 %3, 0
  br i1 %4, label %.lr.ph, label %._crit_edge

.lr.ph:                                           ; preds = %2
  %5 = getelementptr inbounds i8, ptr %0, i64 16
  %6 = getelementptr inbounds i8, ptr %0, i64 40
  br label %7

7:                                                ; preds = %.lr.ph, %_ZN3gmx24AbstractAverageHistogram11scaleSingleEif.exit
  %.04 = phi i32 [ 0, %.lr.ph ], [ %29, %_ZN3gmx24AbstractAverageHistogram11scaleSingleEif.exit ]
  %8 = load i32, ptr %5, align 8
  %9 = icmp sgt i32 %8, 0
  br i1 %9, label %.lr.ph.i, label %_ZN3gmx24AbstractAverageHistogram11scaleSingleEif.exit

.lr.ph.i:                                         ; preds = %7, %.lr.ph.i
  %.08.i = phi i32 [ %26, %.lr.ph.i ], [ 0, %7 ]
  %10 = tail call noundef i32 @_ZNK3gmx20AbstractAnalysisData11columnCountEv(ptr noundef nonnull align 8 dereferenceable(16) %0)
  %11 = mul nsw i32 %10, %.08.i
  %12 = add nsw i32 %11, %.04
  %13 = sext i32 %12 to i64
  %14 = load ptr, ptr %6, align 8
  %15 = getelementptr inbounds %"class.gmx::AnalysisDataValue", ptr %14, i64 %13
  %16 = load float, ptr %15, align 4
  %17 = fmul float %16, %1
  store float %17, ptr %15, align 4
  %18 = tail call noundef i32 @_ZNK3gmx20AbstractAnalysisData11columnCountEv(ptr noundef nonnull align 8 dereferenceable(16) %0)
  %19 = mul nsw i32 %18, %.08.i
  %20 = add nsw i32 %19, %.04
  %21 = sext i32 %20 to i64
  %22 = load ptr, ptr %6, align 8
  %23 = getelementptr inbounds %"class.gmx::AnalysisDataValue", ptr %22, i64 %21, i32 1
  %24 = load float, ptr %23, align 4
  %25 = fmul float %24, %1
  store float %25, ptr %23, align 4
  %26 = add nuw nsw i32 %.08.i, 1
  %27 = load i32, ptr %5, align 8
  %28 = icmp slt i32 %26, %27
  br i1 %28, label %.lr.ph.i, label %_ZN3gmx24AbstractAverageHistogram11scaleSingleEif.exit, !llvm.loop !28

_ZN3gmx24AbstractAverageHistogram11scaleSingleEif.exit: ; preds = %.lr.ph.i, %7
  %29 = add nuw nsw i32 %.04, 1
  %30 = tail call noundef i32 @_ZNK3gmx20AbstractAnalysisData11columnCountEv(ptr noundef nonnull align 8 dereferenceable(16) %0)
  %31 = icmp slt i32 %29, %30
  br i1 %31, label %7, label %._crit_edge, !llvm.loop !32

._crit_edge:                                      ; preds = %_ZN3gmx24AbstractAverageHistogram11scaleSingleEif.exit, %2
  ret void
}